target datalayout = "e-m:e-p270:32:32-p271:32:32-p272:64:64-i64:64-i128:128-f80:128-n8:16:32:64-S128"
target triple = "x86_64-pc-linux-gnu"

%"class.llvm::DWARFFormValue" = type { i16, i8, %"struct.llvm::DWARFFormValue::ValueType", ptr, ptr }
%"struct.llvm::DWARFFormValue::ValueType" = type { %union.anon, ptr, i64 }
%union.anon = type { i64 }
%"class.llvm::StringRef" = type { ptr, i64 }
%"struct.llvm::dwarf::FormParams" = type <{ i16, i8, i8, i8, i8 }>
%"class.llvm::DWARFUnit" = type { ptr, ptr, ptr, %"class.llvm::DWARFUnitHeader", ptr, ptr, i64, i64, %"class.std::unique_ptr", ptr, %"class.llvm::StringRef", ptr, ptr, ptr, %"class.std::optional", i8, i8, ptr, %"class.std::optional.2", ptr, %"class.std::optional.10", %"class.std::vector", %"class.std::map", %"class.std::map", %"class.llvm::DenseSet", %"class.std::shared_ptr" }
%"class.llvm::DWARFUnitHeader" = type <{ i64, %"struct.llvm::dwarf::FormParams", [2 x i8], i64, i64, ptr, i64, i64, %"class.std::optional", i8, i8, [6 x i8] }>
%"class.std::unique_ptr" = type { %"struct.std::__uniq_ptr_data" }
%"struct.std::__uniq_ptr_data" = type { %"class.std::__uniq_ptr_impl" }
%"class.std::__uniq_ptr_impl" = type { %"class.std::tuple" }
%"class.std::tuple" = type { %"struct.std::_Tuple_impl" }
%"struct.std::_Tuple_impl" = type { %"struct.std::_Head_base.1" }
%"struct.std::_Head_base.1" = type { ptr }
%"class.std::optional" = type { %"struct.std::_Optional_base" }
%"struct.std::_Optional_base" = type { %"struct.std::_Optional_payload" }
%"struct.std::_Optional_payload" = type { %"struct.std::_Optional_payload_base.base", [7 x i8] }
%"struct.std::_Optional_payload_base.base" = type <{ %"union.std::_Optional_payload_base<unsigned long>::_Storage", i8 }>
%"union.std::_Optional_payload_base<unsigned long>::_Storage" = type { i64 }
%"class.std::optional.2" = type { %"struct.std::_Optional_base.3" }
%"struct.std::_Optional_base.3" = type { %"struct.std::_Optional_payload.5" }
%"struct.std::_Optional_payload.5" = type { %"struct.std::_Optional_payload_base.base.7", [7 x i8] }
%"struct.std::_Optional_payload_base.base.7" = type { %"union.std::_Optional_payload_base<llvm::StrOffsetsContributionDescriptor>::_Storage", i8 }
%"union.std::_Optional_payload_base<llvm::StrOffsetsContributionDescriptor>::_Storage" = type { %"struct.llvm::StrOffsetsContributionDescriptor" }
%"struct.llvm::StrOffsetsContributionDescriptor" = type <{ i64, i64, %"struct.llvm::dwarf::FormParams", [2 x i8] }>
%"class.std::optional.10" = type { %"struct.std::_Optional_base.11" }
%"struct.std::_Optional_base.11" = type { %"struct.std::_Optional_payload.13" }
%"struct.std::_Optional_payload.13" = type { %"struct.std::_Optional_payload_base.base.15", [7 x i8] }
%"struct.std::_Optional_payload_base.base.15" = type <{ %"union.std::_Optional_payload_base<llvm::object::SectionedAddress>::_Storage", i8 }>
%"union.std::_Optional_payload_base<llvm::object::SectionedAddress>::_Storage" = type { %"struct.llvm::object::SectionedAddress" }
%"struct.llvm::object::SectionedAddress" = type { i64, i64 }
%"class.std::vector" = type { %"struct.std::_Vector_base" }
%"struct.std::_Vector_base" = type { %"struct.std::_Vector_base<llvm::DWARFDebugInfoEntry, std::allocator<llvm::DWARFDebugInfoEntry>>::_Vector_impl" }
%"struct.std::_Vector_base<llvm::DWARFDebugInfoEntry, std::allocator<llvm::DWARFDebugInfoEntry>>::_Vector_impl" = type { %"struct.std::_Vector_base<llvm::DWARFDebugInfoEntry, std::allocator<llvm::DWARFDebugInfoEntry>>::_Vector_impl_data" }
%"struct.std::_Vector_base<llvm::DWARFDebugInfoEntry, std::allocator<llvm::DWARFDebugInfoEntry>>::_Vector_impl_data" = type { ptr, ptr, ptr }
%"class.std::map" = type { %"class.std::_Rb_tree" }
%"class.std::_Rb_tree" = type { %"struct.std::_Rb_tree<unsigned long, std::pair<const unsigned long, std::pair<unsigned long, llvm::DWARFDie>>, std::_Select1st<std::pair<const unsigned long, std::pair<unsigned long, llvm::DWARFDie>>>, std::less<unsigned long>>::_Rb_tree_impl" }
%"struct.std::_Rb_tree<unsigned long, std::pair<const unsigned long, std::pair<unsigned long, llvm::DWARFDie>>, std::_Select1st<std::pair<const unsigned long, std::pair<unsigned long, llvm::DWARFDie>>>, std::less<unsigned long>>::_Rb_tree_impl" = type { [8 x i8], %"struct.std::_Rb_tree_header" }
%"struct.std::_Rb_tree_header" = type { %"struct.std::_Rb_tree_node_base", i64 }
%"struct.std::_Rb_tree_node_base" = type { i32, ptr, ptr, ptr }
%"class.llvm::DenseSet" = type { %"class.llvm::detail::DenseSetImpl" }
%"class.llvm::detail::DenseSetImpl" = type { %"class.llvm::DenseMap" }
%"class.llvm::DenseMap" = type <{ ptr, i32, i32, i32, [4 x i8] }>
%"class.std::shared_ptr" = type { %"class.std::__shared_ptr" }
%"class.std::__shared_ptr" = type { ptr, %"class.std::__shared_count" }
%"class.std::__shared_count" = type { ptr }
%"struct.std::_Optional_payload_base" = type <{ %"union.std::_Optional_payload_base<unsigned long>::_Storage", i8, [7 x i8] }>

; Function Attrs: mustprogress nounwind uwtable
define linkonce_odr hidden void @_ZNSt22_Optional_payload_baseImE8_StorageImLb1EEC2IJRKmEEESt10in_place_tDpOT_(ptr noundef nonnull align 8 dereferenceable(8) %0, ptr noundef nonnull align 8 dereferenceable(8) %1) unnamed_addr #0 comdat align 2 {
  %3 = alloca ptr, align 8
  %4 = alloca ptr, align 8
  store ptr %0, ptr %3, align 8
  store ptr %1, ptr %4, align 8
  %5 = load ptr, ptr %3, align 8
  %6 = load ptr, ptr %4, align 8
  %7 = load i64, ptr %6, align 8
  store i64 %7, ptr %5, align 8
  ret void
}

; Function Attrs: mustprogress nounwind uwtable
define linkonce_odr hidden void @_ZNSt22_Optional_payload_baseImE8_StorageImLb1EEC2Ev(ptr noundef nonnull align 8 dereferenceable(8) %0) unnamed_addr #0 comdat align 2 {
  %2 = alloca ptr, align 8
  store ptr %0, ptr %2, align 8
  ret void
}

; Function Attrs: mustprogress nounwind uwtable
define linkonce_odr hidden void @_ZNSt22_Optional_payload_baseImEC2IJRKmEEESt10in_place_tDpOT_(ptr noundef nonnull align 8 dereferenceable(9) %0, ptr noundef nonnull align 8 dereferenceable(8) %1) unnamed_addr #0 comdat align 2 {
  %3 = alloca ptr, align 8
  %4 = alloca ptr, align 8
  store ptr %0, ptr %3, align 8
  store ptr %1, ptr %4, align 8
  %5 = load ptr, ptr %3, align 8
  %6 = getelementptr inbounds nuw %"struct.std::_Optional_payload_base", ptr %5, i32 0, i32 0
  %7 = load ptr, ptr %4, align 8
  call void @_ZNSt22_Optional_payload_baseImE8_StorageImLb1EEC2IJRKmEEESt10in_place_tDpOT_(ptr noundef nonnull align 8 dereferenceable(8) %6, ptr noundef nonnull align 8 dereferenceable(8) %7)
  %8 = getelementptr inbounds nuw %"struct.std::_Optional_payload_base", ptr %5, i32 0, i32 1
  store i8 1, ptr %8, align 8
  ret void
}

; Function Attrs: mustprogress nounwind uwtable
define linkonce_odr hidden void @_ZNSt22_Optional_payload_baseImEC2Ev(ptr noundef nonnull align 8 dereferenceable(9) %0) unnamed_addr #0 comdat align 2 {
  %2 = alloca ptr, align 8
  store ptr %0, ptr %2, align 8
  %3 = load ptr, ptr %2, align 8
  %4 = getelementptr inbounds nuw %"struct.std::_Optional_payload_base", ptr %3, i32 0, i32 0
  call void @_ZNSt22_Optional_payload_baseImE8_StorageImLb1EEC2Ev(ptr noundef nonnull align 8 dereferenceable(8) %4) #9
  %5 = getelementptr inbounds nuw %"struct.std::_Optional_payload_base", ptr %3, i32 0, i32 1
  store i8 0, ptr %5, align 8
  ret void
}

; Function Attrs: mustprogress nounwind uwtable
define linkonce_odr hidden void @_ZNSt17_Optional_payloadImLb1ELb1ELb1EECI2St22_Optional_payload_baseImEIJRKmEEESt10in_place_tDpOT_(ptr noundef nonnull align 8 dereferenceable(9) %0, ptr noundef nonnull align 8 dereferenceable(8) %1) unnamed_addr #0 comdat align 2 {
  %3 = alloca ptr, align 8
  %4 = alloca ptr, align 8
  store ptr %0, ptr %3, align 8
  store ptr %1, ptr %4, align 8
  %5 = load ptr, ptr %3, align 8
  %6 = load ptr, ptr %4, align 8
  call void @_ZNSt22_Optional_payload_baseImEC2IJRKmEEESt10in_place_tDpOT_(ptr noundef nonnull align 8 dereferenceable(9) %5, ptr noundef nonnull align 8 dereferenceable(8) %6)
  ret void
}

; Function Attrs: mustprogress nounwind uwtable
define linkonce_odr hidden void @_ZNSt17_Optional_payloadImLb1ELb1ELb1EEC2Ev(ptr noundef nonnull align 8 dereferenceable(9) %0) unnamed_addr #0 comdat align 2 {
  %2 = alloca ptr, align 8
  store ptr %0, ptr %2, align 8
  %3 = load ptr, ptr %2, align 8
  call void @_ZNSt22_Optional_payload_baseImEC2Ev(ptr noundef nonnull align 8 dereferenceable(9) %3) #9
  ret void
}

; Function Attrs: mustprogress nounwind uwtable
define linkonce_odr noundef i64 @_ZSt4sizeIN4llvm14DWARFFormValue9FormClassELm46EEmRAT0__KT_(ptr noundef nonnull align 4 dereferenceable(184) %0) #0 comdat {
  %2 = alloca ptr, align 8
  store ptr %0, ptr %2, align 8
  ret i64 46
}

; Function Attrs: mustprogress nounwind uwtable
define linkonce_odr hidden noundef zeroext i16 @_ZNK4llvm15DWARFUnitHeader10getVersionEv(ptr noundef nonnull align 8 dereferenceable(74) %0) #0 comdat align 2 {
  %2 = alloca ptr, align 8
  store ptr %0, ptr %2, align 8
  %3 = load ptr, ptr %2, align 8
  %4 = getelementptr inbounds nuw %"class.llvm::DWARFUnitHeader", ptr %3, i32 0, i32 1
  %5 = getelementptr inbounds nuw %"struct.llvm::dwarf::FormParams", ptr %4, i32 0, i32 0
  %6 = load i16, ptr %5, align 8
  ret i16 %6
}

; Function Attrs: mustprogress nounwind uwtable
define linkonce_odr hidden void @_ZNSt14_Optional_baseImLb1ELb1EEC2IJRKmETnNSt9enable_ifIX18is_constructible_vImDpT_EEbE4typeELb0EEESt10in_place_tDpOS5_(ptr noundef nonnull align 8 dereferenceable(16) %0, ptr noundef nonnull align 8 dereferenceable(8) %1) unnamed_addr #0 comdat align 2 {
  %3 = alloca ptr, align 8
  %4 = alloca ptr, align 8
  store ptr %0, ptr %3, align 8
  store ptr %1, ptr %4, align 8
  %5 = load ptr, ptr %3, align 8
  %6 = getelementptr inbounds nuw %"struct.std::_Optional_base", ptr %5, i32 0, i32 0
  %7 = load ptr, ptr %4, align 8
  call void @_ZNSt17_Optional_payloadImLb1ELb1ELb1EECI2St22_Optional_payload_baseImEIJRKmEEESt10in_place_tDpOT_(ptr noundef nonnull align 8 dereferenceable(9) %6, ptr noundef nonnull align 8 dereferenceable(8) %7)
  ret void
}

; Function Attrs: mustprogress nounwind uwtable
define linkonce_odr hidden void @_ZNSt14_Optional_baseImLb1ELb1EEC2Ev(ptr noundef nonnull align 8 dereferenceable(16) %0) unnamed_addr #0 comdat align 2 {
  %2 = alloca ptr, align 8
  store ptr %0, ptr %2, align 8
  %3 = load ptr, ptr %2, align 8
  %4 = getelementptr inbounds nuw %"struct.std::_Optional_base", ptr %3, i32 0, i32 0
  call void @_ZNSt17_Optional_payloadImLb1ELb1ELb1EEC2Ev(ptr noundef nonnull align 8 dereferenceable(9) %4) #9
  ret void
}

; Function Attrs: mustprogress nounwind uwtable
define dso_local noundef zeroext i1 @_ZN4llvm5dwarf21doesFormBelongToClassENS0_4FormENS_14DWARFFormValue9FormClassEt(i16 noundef zeroext %0, i32 noundef %1, i16 noundef zeroext %2) #0 {
  %4 = alloca i1, align 1
  %5 = alloca i16, align 2
  %6 = alloca i32, align 4
  %7 = alloca i16, align 2
  store i16 %0, ptr %5, align 2
  store i32 %1, ptr %6, align 4
  store i16 %2, ptr %7, align 2
  %8 = load i16, ptr %5, align 2
  %9 = zext i16 %8 to i64
  %10 = call noundef i64 @_ZSt4sizeIN4llvm14DWARFFormValue9FormClassELm46EEmRAT0__KT_(ptr noundef nonnull align 4 dereferenceable(184) @_ZL17DWARF5FormClasses) #9
  %11 = icmp ult i64 %9, %10
  br i1 %11, label %12, label %20

12:                                               ; preds = %3
  %13 = load i16, ptr %5, align 2
  %14 = zext i16 %13 to i64
  %15 = getelementptr inbounds [46 x i32], ptr @_ZL17DWARF5FormClasses, i64 0, i64 %14
  %16 = load i32, ptr %15, align 4
  %17 = load i32, ptr %6, align 4
  %18 = icmp eq i32 %16, %17
  br i1 %18, label %19, label %20

19:                                               ; preds = %12
  store i1 true, ptr %4, align 1
  br label %48

20:                                               ; preds = %12, %3
  %21 = load i16, ptr %5, align 2
  %22 = zext i16 %21 to i32
  switch i32 %22, label %47 [
    i32 7968, label %23
    i32 7937, label %26
    i32 7938, label %29
    i32 7969, label %29
    i32 8193, label %32
    i32 14, label %35
    i32 31, label %35
    i32 6, label %38
    i32 7, label %38
  ]

23:                                               ; preds = %20
  %24 = load i32, ptr %6, align 4
  %25 = icmp eq i32 %24, 6
  store i1 %25, ptr %4, align 1
  br label %48

26:                                               ; preds = %20
  %27 = load i32, ptr %6, align 4
  %28 = icmp eq i32 %27, 1
  store i1 %28, ptr %4, align 1
  br label %48

29:                                               ; preds = %20, %20
  %30 = load i32, ptr %6, align 4
  %31 = icmp eq i32 %30, 4
  store i1 %31, ptr %4, align 1
  br label %48

32:                                               ; preds = %20
  %33 = load i32, ptr %6, align 4
  %34 = icmp eq i32 %33, 1
  store i1 %34, ptr %4, align 1
  br label %48

35:                                               ; preds = %20, %20
  %36 = load i32, ptr %6, align 4
  %37 = icmp eq i32 %36, 8
  store i1 %37, ptr %4, align 1
  br label %48

38:                                               ; preds = %20, %20
  %39 = load i32, ptr %6, align 4
  %40 = icmp eq i32 %39, 8
  br i1 %40, label %41, label %45

41:                                               ; preds = %38
  %42 = load i16, ptr %7, align 2
  %43 = zext i16 %42 to i32
  %44 = icmp sle i32 %43, 3
  br label %45

45:                                               ; preds = %41, %38
  %46 = phi i1 [ false, %38 ], [ %44, %41 ]
  store i1 %46, ptr %4, align 1
  br label %48

47:                                               ; preds = %20
  store i1 false, ptr %4, align 1
  br label %48

48:                                               ; preds = %47, %45, %35, %32, %29, %26, %23, %19
  %49 = load i1, ptr %4, align 1
  ret i1 %49
}

; Function Attrs: mustprogress nounwind uwtable
define linkonce_odr hidden noundef zeroext i16 @_ZNK4llvm9DWARFUnit10getVersionEv(ptr noundef nonnull align 8 dereferenceable(448) %0) #0 comdat align 2 {
  %2 = alloca ptr, align 8
  store ptr %0, ptr %2, align 8
  %3 = load ptr, ptr %2, align 8
  %4 = getelementptr inbounds nuw %"class.llvm::DWARFUnit", ptr %3, i32 0, i32 3
  %5 = call noundef zeroext i16 @_ZNK4llvm15DWARFUnitHeader10getVersionEv(ptr noundef nonnull align 8 dereferenceable(74) %4)
  ret i16 %5
}

; Function Attrs: mustprogress nounwind uwtable
define linkonce_odr hidden void @_ZNSt8optionalImEC2IRKmTnNSt9enable_ifIX7__and_vISt6__not_ISt7is_sameIS0_NSt9remove_cvINSt16remove_referenceIT_E4typeEE4typeEEES5_IS6_ISt10in_place_tSD_EESt16is_constructibleImJS9_EESt14is_convertibleIS9_mEEEbE4typeELb1EEEOS9_(ptr noundef nonnull align 8 dereferenceable(16) %0, ptr noundef nonnull align 8 dereferenceable(8) %1) unnamed_addr #0 comdat align 2 {
  %3 = alloca ptr, align 8
  %4 = alloca ptr, align 8
  store ptr %0, ptr %3, align 8
  store ptr %1, ptr %4, align 8
  %5 = load ptr, ptr %3, align 8
  %6 = load ptr, ptr %4, align 8
  call void @_ZNSt14_Optional_baseImLb1ELb1EEC2IJRKmETnNSt9enable_ifIX18is_constructible_vImDpT_EEbE4typeELb0EEESt10in_place_tDpOS5_(ptr noundef nonnull align 8 dereferenceable(16) %5, ptr noundef nonnull align 8 dereferenceable(8) %6)
  ret void
}

; Function Attrs: mustprogress nounwind uwtable
define linkonce_odr hidden void @_ZNSt8optionalImEC2ESt9nullopt_t(ptr noundef nonnull align 8 dereferenceable(16) %0) unnamed_addr #0 comdat align 2 {
  %2 = alloca ptr, align 8
  store ptr %0, ptr %2, align 8
  %3 = load ptr, ptr %2, align 8
  call void @_ZNSt14_Optional_baseImLb1ELb1EEC2Ev(ptr noundef nonnull align 8 dereferenceable(16) %3) #9
  ret void
}

; Function Attrs: mustprogress nounwind uwtable
define dso_local noundef zeroext i1 @_ZNK4llvm14DWARFFormValue11isFormClassENS0_9FormClassE(ptr noundef nonnull align 8 dereferenceable(48) %0, i32 noundef %1) #0 align 2 {
  %3 = alloca ptr, align 8
  %4 = alloca i32, align 4
  store ptr %0, ptr %3, align 8
  store i32 %1, ptr %4, align 4
  %5 = load ptr, ptr %3, align 8
  %6 = getelementptr inbounds nuw %"class.llvm::DWARFFormValue", ptr %5, i32 0, i32 0
  %7 = load i16, ptr %6, align 8
  %8 = load i32, ptr %4, align 4
  %9 = getelementptr inbounds nuw %"class.llvm::DWARFFormValue", ptr %5, i32 0, i32 3
  %10 = load ptr, ptr %9, align 8
  %11 = icmp ne ptr %10, null
  br i1 %11, label %12, label %17

12:                                               ; preds = %2
  %13 = getelementptr inbounds nuw %"class.llvm::DWARFFormValue", ptr %5, i32 0, i32 3
  %14 = load ptr, ptr %13, align 8
  %15 = call noundef zeroext i16 @_ZNK4llvm9DWARFUnit10getVersionEv(ptr noundef nonnull align 8 dereferenceable(448) %14)
  %16 = zext i16 %15 to i32
  br label %18

17:                                               ; preds = %2
  br label %18

18:                                               ; preds = %17, %12
  %19 = phi i32 [ %16, %12 ], [ 3, %17 ]
  %20 = trunc i32 %19 to i16
  %21 = call noundef zeroext i1 @_ZN4llvm5dwarf21doesFormBelongToClassENS0_4FormENS_14DWARFFormValue9FormClassEt(i16 noundef zeroext %7, i32 noundef %8, i16 noundef zeroext %20)
  ret i1 %21
}

; Function Attrs: mustprogress nounwind uwtable
define dso_local { i64, i8 } @_ZNK4llvm14DWARFFormValue18getAsSectionOffsetEv(ptr noundef nonnull align 8 dereferenceable(48) %0) #0 align 2 {
  %2 = alloca %"class.std::optional", align 8
  %3 = alloca ptr, align 8
  store ptr %0, ptr %3, align 8
  %4 = load ptr, ptr %3, align 8
  %5 = call noundef zeroext i1 @_ZNK4llvm14DWARFFormValue11isFormClassENS0_9FormClassE(ptr noundef nonnull align 8 dereferenceable(48) %4, i32 noundef 8)
  br i1 %5, label %7, label %6

6:                                                ; preds = %1
  call void @_ZNSt8optionalImEC2ESt9nullopt_t(ptr noundef nonnull align 8 dereferenceable(16) %2) #9
  br label %10

7:                                                ; preds = %1
  %8 = getelementptr inbounds nuw %"class.llvm::DWARFFormValue", ptr %4, i32 0, i32 2
  %9 = getelementptr inbounds nuw %"struct.llvm::DWARFFormValue::ValueType", ptr %8, i32 0, i32 0
  call void @_ZNSt8optionalImEC2IRKmTnNSt9enable_ifIX7__and_vISt6__not_ISt7is_sameIS0_NSt9remove_cvINSt16remove_referenceIT_E4typeEE4typeEEES5_IS6_ISt10in_place_tSD_EESt16is_constructibleImJS9_EESt14is_convertibleIS9_mEEEbE4typeELb1EEEOS9_(ptr noundef nonnull align 8 dereferenceable(16) %2, ptr noundef nonnull align 8 dereferenceable(8) %9) #9
  br label %10

10:                                               ; preds = %7, %6
  %11 = getelementptr inbounds nuw %"class.std::optional", ptr %2, i32 0, i32 0
  %12 = getelementptr inbounds nuw %"struct.std::_Optional_base", ptr %11, i32 0, i32 0
  %13 = load { i64, i8 }, ptr %12, align 8
  ret { i64, i8 } %13
}