; Function Attrs: mustprogress nofree norecurse nosync nounwind willreturn memory(read, inaccessiblemem: none) uwtable
define dso_local { i64, i8 } @_ZNK4llvm14DWARFFormValue18getAsSectionOffsetEv(ptr nocapture noundef nonnull readonly align 8 dereferenceable(48) %0) local_unnamed_addr #4 align 2 {
  %2 = load i16, ptr %0, align 8
  %3 = getelementptr inbounds nuw i8, ptr %0, i64 32
  %4 = load ptr, ptr %3, align 8
  %.not.i = icmp eq ptr %4, null
  br i1 %.not.i, label %9, label %5

5:                                                ; preds = %1
  %6 = getelementptr inbounds i8, ptr %4, i64 32
  %7 = load i16, ptr %6, align 8
  %8 = icmp ult i16 %7, 4
  br label %9

9:                                                ; preds = %5, %1
  %10 = phi i1 [ %8, %5 ], [ true, %1 ]
  %11 = icmp ult i16 %2, 46
  br i1 %11, label %12, label %16

12:                                               ; preds = %9
  %13 = zext nneg i16 %2 to i64
  %14 = shl nuw nsw i64 1, %13
  %15 = and i64 %14, 51547996160
  %.not = icmp eq i64 %15, 0
  br i1 %.not, label %16, label %_ZNK4llvm14DWARFFormValue11isFormClassENS0_9FormClassE.exit.thread

16:                                               ; preds = %12, %9
  switch i16 %2, label %_ZNK4llvm14DWARFFormValue11isFormClassENS0_9FormClassE.exit.thread3 [
    i16 7, label %_ZNK4llvm14DWARFFormValue11isFormClassENS0_9FormClassE.exit
    i16 6, label %_ZNK4llvm14DWARFFormValue11isFormClassENS0_9FormClassE.exit
    i16 31, label %_ZNK4llvm14DWARFFormValue11isFormClassENS0_9FormClassE.exit.thread
    i16 14, label %_ZNK4llvm14DWARFFormValue11isFormClassENS0_9FormClassE.exit.thread
  ]

_ZNK4llvm14DWARFFormValue11isFormClassENS0_9FormClassE.exit: ; preds = %16, %16
  br i1 %10, label %_ZNK4llvm14DWARFFormValue11isFormClassENS0_9FormClassE.exit.thread, label %_ZNK4llvm14DWARFFormValue11isFormClassENS0_9FormClassE.exit.thread3

_ZNK4llvm14DWARFFormValue11isFormClassENS0_9FormClassE.exit.thread: ; preds = %16, %16, %12, %_ZNK4llvm14DWARFFormValue11isFormClassENS0_9FormClassE.exit
  %17 = getelementptr inbounds nuw i8, ptr %0, i64 8
  %18 = load i64, ptr %17, align 8
  br label %_ZNK4llvm14DWARFFormValue11isFormClassENS0_9FormClassE.exit.thread3

_ZNK4llvm14DWARFFormValue11isFormClassENS0_9FormClassE.exit.thread3: ; preds = %16, %_ZNK4llvm14DWARFFormValue11isFormClassENS0_9FormClassE.exit, %_ZNK4llvm14DWARFFormValue11isFormClassENS0_9FormClassE.exit.thread
  %.sroa.2.0 = phi i8 [ 1, %_ZNK4llvm14DWARFFormValue11isFormClassENS0_9FormClassE.exit.thread ], [ 0, %_ZNK4llvm14DWARFFormValue11isFormClassENS0_9FormClassE.exit ], [ 0, %16 ]
  %.sroa.0.0 = phi i64 [ %18, %_ZNK4llvm14DWARFFormValue11isFormClassENS0_9FormClassE.exit.thread ], [ undef, %_ZNK4llvm14DWARFFormValue11isFormClassENS0_9FormClassE.exit ], [ undef, %16 ]
  %.fca.0.insert = insertvalue { i64, i8 } poison, i64 %.sroa.0.0, 0
  %.fca.1.insert = insertvalue { i64, i8 } %.fca.0.insert, i8 %.sroa.2.0, 1
  ret { i64, i8 } %.fca.1.insert
}